; Function Attrs: mustprogress nounwind uwtable
define dso_local noundef ptr @_ZN4llvm12MMRAMetadata8getTagMDERNS_11LLVMContextENS_9StringRefES3_(ptr noundef nonnull align 8 dereferenceable(8) %0, ptr %1, i64 %2, ptr %3, i64 %4) local_unnamed_addr #0 align 2 {
  %6 = alloca [2 x ptr], align 8
  %7 = tail call noundef ptr @_ZN4llvm8MDString3getERNS_11LLVMContextENS_9StringRefE(ptr noundef nonnull align 8 dereferenceable(8) %0, ptr %1, i64 %2) #12
  store ptr %7, ptr %6, align 8
  %8 = getelementptr inbounds i8, ptr %6, i64 8
  %9 = tail call noundef ptr @_ZN4llvm8MDString3getERNS_11LLVMContextENS_9StringRefE(ptr noundef nonnull align 8 dereferenceable(8) %0, ptr %3, i64 %4) #12
  store ptr %9, ptr %8, align 8
  %10 = call noundef ptr @_ZN4llvm7MDTuple7getImplERNS_11LLVMContextENS_8ArrayRefIPNS_8MetadataEEENS4_11StorageTypeEb(ptr noundef nonnull align 8 dereferenceable(8) %0, ptr nonnull %6, i64 2, i32 noundef 0, i1 noundef zeroext true) #12
  ret ptr %10
}